(dp0
S'show_imports'
p1
I0
sS'prj_name'
p2
S''
p3
sS'docformat'
p4
S'epytext'
p5
sS'inheritance'
p6
S'grouped'
p7
sS'help'
p8
NsS'modules'
p9
(tsS'private'
p10
I1
sS'prj_url'
p11
NsS'introspect_or_parse'
p12
S'both'
p13
sS'frames'
p14
I1
sS'css'
p15
S'default'
p16
sS'target'
p17
S'html'
p18
s.